target datalayout = "e-m:e-p270:32:32-p271:32:32-p272:64:64-i64:64-i128:128-f80:128-n8:16:32:64-S128"
target triple = "x86_64-pc-linux-gnu"

%struct.DdManager = type { %struct.DdNode, ptr, ptr, ptr, ptr, ptr, ptr, ptr, i32, i32, double, double, double, i32, i32, i32, i32, i32, i32, ptr, ptr, %struct.DdSubtable, i32, i32, i32, i32, i32, i32, i32, double, i32, i32, i32, ptr, i64, double, i32, ptr, ptr, ptr, ptr, ptr, ptr, ptr, i32, ptr, ptr, ptr, ptr, ptr, ptr, i32, i32, i32, double, i32, i32, i32, i32, double, double, i32, i32, i32, i32, i32, i32, i32, i32, i32, ptr, ptr, i32, i32, i32, i32, i32, i32, ptr, ptr, ptr, ptr, ptr, ptr, ptr, ptr, i32, i64, i64, i64, i32, i64, i64, double, double, double, double, double, double, i32, ptr, ptr, i64 }
%struct.DdNode = type { i32, i32, ptr, %union.anon, i64 }
%union.anon = type { %struct.DdChildren }
%struct.DdChildren = type { ptr, ptr }
%struct.DdSubtable = type { ptr, i32, i32, i32, i32, i32, i32, i32, i32, i32, i32, i32 }

; Function Attrs: nounwind uwtable
define ptr @Extra_bddGetOneCube(ptr noundef %0, ptr noundef %1) #0 {
  %3 = alloca ptr, align 8
  %4 = alloca ptr, align 8
  %5 = alloca ptr, align 8
  %6 = alloca ptr, align 8
  %7 = alloca ptr, align 8
  %8 = alloca ptr, align 8
  %9 = alloca ptr, align 8
  %10 = alloca ptr, align 8
  %11 = alloca ptr, align 8
  %12 = alloca i32, align 4
  store ptr %0, ptr %4, align 8, !tbaa !3
  store ptr %1, ptr %5, align 8, !tbaa !8
  call void @llvm.lifetime.start.p0(i64 8, ptr %6) #10
  call void @llvm.lifetime.start.p0(i64 8, ptr %7) #10
  call void @llvm.lifetime.start.p0(i64 8, ptr %8) #10
  call void @llvm.lifetime.start.p0(i64 8, ptr %9) #10
  call void @llvm.lifetime.start.p0(i64 8, ptr %10) #10
  call void @llvm.lifetime.start.p0(i64 8, ptr %11) #10
  %13 = load ptr, ptr %5, align 8, !tbaa !8
  %14 = ptrtoint ptr %13 to i64
  %15 = and i64 %14, -2
  %16 = inttoptr i64 %15 to ptr
  store ptr %16, ptr %6, align 8, !tbaa !8
  %17 = load ptr, ptr %6, align 8, !tbaa !8
  %18 = getelementptr inbounds nuw %struct.DdNode, ptr %17, i32 0, i32 0
  %19 = load i32, ptr %18, align 8, !tbaa !42
  %20 = icmp eq i32 %19, 2147483647
  br i1 %20, label %21, label %23

21:                                               ; preds = %2
  %22 = load ptr, ptr %5, align 8, !tbaa !8
  store ptr %22, ptr %3, align 8
  store i32 1, ptr %12, align 4
  br label %110

23:                                               ; preds = %2
  %24 = load ptr, ptr %5, align 8, !tbaa !8
  %25 = ptrtoint ptr %24 to i64
  %26 = and i64 %25, 1
  %27 = trunc i64 %26 to i32
  %28 = icmp ne i32 %27, 0
  br i1 %28, label %29, label %44

29:                                               ; preds = %23
  %30 = load ptr, ptr %6, align 8, !tbaa !8
  %31 = getelementptr inbounds nuw %struct.DdNode, ptr %30, i32 0, i32 3
  %32 = getelementptr inbounds nuw %struct.DdChildren, ptr %31, i32 0, i32 1
  %33 = load ptr, ptr %32, align 8, !tbaa !43
  %34 = ptrtoint ptr %33 to i64
  %35 = xor i64 %34, 1
  %36 = inttoptr i64 %35 to ptr
  store ptr %36, ptr %7, align 8, !tbaa !8
  %37 = load ptr, ptr %6, align 8, !tbaa !8
  %38 = getelementptr inbounds nuw %struct.DdNode, ptr %37, i32 0, i32 3
  %39 = getelementptr inbounds nuw %struct.DdChildren, ptr %38, i32 0, i32 0
  %40 = load ptr, ptr %39, align 8, !tbaa !43
  %41 = ptrtoint ptr %40 to i64
  %42 = xor i64 %41, 1
  %43 = inttoptr i64 %42 to ptr
  store ptr %43, ptr %8, align 8, !tbaa !8
  br label %53

44:                                               ; preds = %23
  %45 = load ptr, ptr %6, align 8, !tbaa !8
  %46 = getelementptr inbounds nuw %struct.DdNode, ptr %45, i32 0, i32 3
  %47 = getelementptr inbounds nuw %struct.DdChildren, ptr %46, i32 0, i32 1
  %48 = load ptr, ptr %47, align 8, !tbaa !43
  store ptr %48, ptr %7, align 8, !tbaa !8
  %49 = load ptr, ptr %6, align 8, !tbaa !8
  %50 = getelementptr inbounds nuw %struct.DdNode, ptr %49, i32 0, i32 3
  %51 = getelementptr inbounds nuw %struct.DdChildren, ptr %50, i32 0, i32 0
  %52 = load ptr, ptr %51, align 8, !tbaa !43
  store ptr %52, ptr %8, align 8, !tbaa !8
  br label %53

53:                                               ; preds = %44, %29
  %54 = load ptr, ptr %4, align 8, !tbaa !3
  %55 = load ptr, ptr %7, align 8, !tbaa !8
  %56 = call ptr @Extra_bddGetOneCube(ptr noundef %54, ptr noundef %55)
  store ptr %56, ptr %9, align 8, !tbaa !8
  %57 = load ptr, ptr %9, align 8, !tbaa !8
  call void @Cudd_Ref(ptr noundef %57)
  %58 = load ptr, ptr %9, align 8, !tbaa !8
  %59 = load ptr, ptr %4, align 8, !tbaa !3
  %60 = getelementptr inbounds nuw %struct.DdManager, ptr %59, i32 0, i32 1
  %61 = load ptr, ptr %60, align 8, !tbaa !41
  %62 = ptrtoint ptr %61 to i64
  %63 = xor i64 %62, 1
  %64 = inttoptr i64 %63 to ptr
  %65 = icmp ne ptr %58, %64
  br i1 %65, label %66, label %85

66:                                               ; preds = %53
  %67 = load ptr, ptr %4, align 8, !tbaa !3
  %68 = load ptr, ptr %9, align 8, !tbaa !8
  %69 = load ptr, ptr %4, align 8, !tbaa !3
  %70 = getelementptr inbounds nuw %struct.DdManager, ptr %69, i32 0, i32 41
  %71 = load ptr, ptr %70, align 8, !tbaa !45
  %72 = load ptr, ptr %6, align 8, !tbaa !8
  %73 = getelementptr inbounds nuw %struct.DdNode, ptr %72, i32 0, i32 0
  %74 = load i32, ptr %73, align 8, !tbaa !42
  %75 = zext i32 %74 to i64
  %76 = getelementptr inbounds nuw ptr, ptr %71, i64 %75
  %77 = load ptr, ptr %76, align 8, !tbaa !8
  %78 = ptrtoint ptr %77 to i64
  %79 = xor i64 %78, 1
  %80 = inttoptr i64 %79 to ptr
  %81 = call ptr @Cudd_bddAnd(ptr noundef %67, ptr noundef %68, ptr noundef %80)
  store ptr %81, ptr %11, align 8, !tbaa !8
  %82 = load ptr, ptr %11, align 8, !tbaa !8
  call void @Cudd_Ref(ptr noundef %82)
  %83 = load ptr, ptr %4, align 8, !tbaa !3
  %84 = load ptr, ptr %9, align 8, !tbaa !8
  call void @Cudd_RecursiveDeref(ptr noundef %83, ptr noundef %84)
  br label %107

85:                                               ; preds = %53
  %86 = load ptr, ptr %4, align 8, !tbaa !3
  %87 = load ptr, ptr %9, align 8, !tbaa !8
  call void @Cudd_RecursiveDeref(ptr noundef %86, ptr noundef %87)
  %88 = load ptr, ptr %4, align 8, !tbaa !3
  %89 = load ptr, ptr %8, align 8, !tbaa !8
  %90 = call ptr @Extra_bddGetOneCube(ptr noundef %88, ptr noundef %89)
  store ptr %90, ptr %10, align 8, !tbaa !8
  %91 = load ptr, ptr %10, align 8, !tbaa !8
  call void @Cudd_Ref(ptr noundef %91)
  %92 = load ptr, ptr %4, align 8, !tbaa !3
  %93 = load ptr, ptr %10, align 8, !tbaa !8
  %94 = load ptr, ptr %4, align 8, !tbaa !3
  %95 = getelementptr inbounds nuw %struct.DdManager, ptr %94, i32 0, i32 41
  %96 = load ptr, ptr %95, align 8, !tbaa !45
  %97 = load ptr, ptr %6, align 8, !tbaa !8
  %98 = getelementptr inbounds nuw %struct.DdNode, ptr %97, i32 0, i32 0
  %99 = load i32, ptr %98, align 8, !tbaa !42
  %100 = zext i32 %99 to i64
  %101 = getelementptr inbounds nuw ptr, ptr %96, i64 %100
  %102 = load ptr, ptr %101, align 8, !tbaa !8
  %103 = call ptr @Cudd_bddAnd(ptr noundef %92, ptr noundef %93, ptr noundef %102)
  store ptr %103, ptr %11, align 8, !tbaa !8
  %104 = load ptr, ptr %11, align 8, !tbaa !8
  call void @Cudd_Ref(ptr noundef %104)
  %105 = load ptr, ptr %4, align 8, !tbaa !3
  %106 = load ptr, ptr %10, align 8, !tbaa !8
  call void @Cudd_RecursiveDeref(ptr noundef %105, ptr noundef %106)
  br label %107

107:                                              ; preds = %85, %66
  %108 = load ptr, ptr %11, align 8, !tbaa !8
  call void @Cudd_Deref(ptr noundef %108)
  %109 = load ptr, ptr %11, align 8, !tbaa !8
  store ptr %109, ptr %3, align 8
  store i32 1, ptr %12, align 4
  br label %110

110:                                              ; preds = %107, %21
  call void @llvm.lifetime.end.p0(i64 8, ptr %11) #10
  call void @llvm.lifetime.end.p0(i64 8, ptr %10) #10
  call void @llvm.lifetime.end.p0(i64 8, ptr %9) #10
  call void @llvm.lifetime.end.p0(i64 8, ptr %8) #10
  call void @llvm.lifetime.end.p0(i64 8, ptr %7) #10
  call void @llvm.lifetime.end.p0(i64 8, ptr %6) #10
  %111 = load ptr, ptr %3, align 8
  ret ptr %111
}