; Function Attrs: nounwind uwtable
define noundef ptr @Extra_bddGetOneCube(ptr noundef %0, ptr noundef %1) local_unnamed_addr #0 {
  %3 = ptrtoint ptr %1 to i64
  %4 = and i64 %3, -2
  %5 = inttoptr i64 %4 to ptr
  %6 = load i32, ptr %5, align 8, !tbaa !35
  %7 = icmp eq i32 %6, 2147483647
  br i1 %7, label %51, label %8

8:                                                ; preds = %2
  %9 = and i64 %3, 1
  %.not = icmp eq i64 %9, 0
  %10 = getelementptr inbounds nuw i8, ptr %5, i64 16
  %11 = getelementptr inbounds nuw i8, ptr %5, i64 24
  %12 = load ptr, ptr %11, align 8, !tbaa !36
  br i1 %.not, label %21, label %13

13:                                               ; preds = %8
  %14 = ptrtoint ptr %12 to i64
  %15 = xor i64 %14, 1
  %16 = inttoptr i64 %15 to ptr
  %17 = load ptr, ptr %10, align 8, !tbaa !36
  %18 = ptrtoint ptr %17 to i64
  %19 = xor i64 %18, 1
  %20 = inttoptr i64 %19 to ptr
  br label %23

21:                                               ; preds = %8
  %22 = load ptr, ptr %10, align 8, !tbaa !36
  br label %23

23:                                               ; preds = %21, %13
  %.037 = phi ptr [ %20, %13 ], [ %22, %21 ]
  %.036 = phi ptr [ %16, %13 ], [ %12, %21 ]
  %24 = tail call ptr @Extra_bddGetOneCube(ptr noundef %0, ptr noundef %.036)
  tail call void @Cudd_Ref(ptr noundef %24) #19
  %25 = getelementptr inbounds nuw i8, ptr %0, i64 40
  %26 = load ptr, ptr %25, align 8, !tbaa !34
  %27 = ptrtoint ptr %26 to i64
  %28 = xor i64 %27, 1
  %29 = inttoptr i64 %28 to ptr
  %.not39 = icmp eq ptr %24, %29
  br i1 %.not39, label %41, label %30

30:                                               ; preds = %23
  %31 = getelementptr inbounds nuw i8, ptr %0, i64 344
  %32 = load ptr, ptr %31, align 8, !tbaa !38
  %33 = load i32, ptr %5, align 8, !tbaa !35
  %34 = zext i32 %33 to i64
  %35 = getelementptr inbounds nuw ptr, ptr %32, i64 %34
  %36 = load ptr, ptr %35, align 8, !tbaa !25
  %37 = ptrtoint ptr %36 to i64
  %38 = xor i64 %37, 1
  %39 = inttoptr i64 %38 to ptr
  %40 = tail call ptr @Cudd_bddAnd(ptr noundef nonnull %0, ptr noundef %24, ptr noundef %39) #19
  br label %50

41:                                               ; preds = %23
  tail call void @Cudd_RecursiveDeref(ptr noundef nonnull %0, ptr noundef %24) #19
  %42 = tail call ptr @Extra_bddGetOneCube(ptr noundef nonnull %0, ptr noundef %.037)
  tail call void @Cudd_Ref(ptr noundef %42) #19
  %43 = getelementptr inbounds nuw i8, ptr %0, i64 344
  %44 = load ptr, ptr %43, align 8, !tbaa !38
  %45 = load i32, ptr %5, align 8, !tbaa !35
  %46 = zext i32 %45 to i64
  %47 = getelementptr inbounds nuw ptr, ptr %44, i64 %46
  %48 = load ptr, ptr %47, align 8, !tbaa !25
  %49 = tail call ptr @Cudd_bddAnd(ptr noundef nonnull %0, ptr noundef %42, ptr noundef %48) #19
  br label %50

50:                                               ; preds = %41, %30
  %.sink40 = phi ptr [ %49, %41 ], [ %40, %30 ]
  %.sink = phi ptr [ %42, %41 ], [ %24, %30 ]
  tail call void @Cudd_Ref(ptr noundef %.sink40) #19
  tail call void @Cudd_RecursiveDeref(ptr noundef nonnull %0, ptr noundef %.sink) #19
  tail call void @Cudd_Deref(ptr noundef %.sink40) #19
  br label %51

51:                                               ; preds = %2, %50
  %.035 = phi ptr [ %.sink40, %50 ], [ %1, %2 ]
  ret ptr %.035
}